; Function Attrs: mustprogress nounwind uwtable
define internal void @_ZL11UserHandleriP9siginfo_tPv(i32 noundef %0, ptr nocapture readnone %1, ptr nocapture readnone %2) #0 {
  %4 = alloca %struct.__sigset_t, align 8
  call void @llvm.lifetime.start.p0(i64 128, ptr nonnull %4)
  %5 = call i32 @sigemptyset(ptr noundef nonnull %4) #20
  %6 = call i32 @sigaddset(ptr noundef nonnull %4, i32 noundef 4) #20
  %7 = call i32 @sigaddset(ptr noundef nonnull %4, i32 noundef 7) #20
  %8 = call i32 @sigaddset(ptr noundef nonnull %4, i32 noundef 8) #20
  %9 = call i32 @sigaddset(ptr noundef nonnull %4, i32 noundef 11) #20
  %10 = call i32 @sigaddset(ptr noundef nonnull %4, i32 noundef 5) #20
  %11 = call i32 @pthread_sigmask(i32 noundef 1, ptr noundef nonnull %4, ptr noundef null) #20
  call void @llvm.lifetime.end.p0(i64 128, ptr nonnull %4)
  %12 = icmp eq i32 %0, 2
  br i1 %12, label %18, label %.split

.split:                                           ; preds = %3
  %13 = load ptr, ptr @_ZL13sig_semaphore, align 8
  %.not.i = icmp eq ptr %13, null
  br i1 %.not.i, label %_ZN2os13signal_notifyEi.exit, label %14

14:                                               ; preds = %.split
  %15 = sext i32 %0 to i64
  %16 = getelementptr inbounds [66 x i32], ptr @_ZL15pending_signals, i64 0, i64 %15
  %17 = call noundef i32 asm sideeffect "lock xaddl $0,($2)", "=r,0,r,~{cc},~{memory},~{dirflag},~{fpsr},~{flags}"(i32 1, ptr nonnull %16) #20, !srcloc !8
  br label %_ZN2os13signal_notifyEi.exit.sink.split

18:                                               ; preds = %3
  %19 = call noundef zeroext i1 @_ZN7VMError17is_error_reportedEv() #20
  br i1 %19, label %23, label %.split2

.split2:                                          ; preds = %18
  %20 = load ptr, ptr @_ZL13sig_semaphore, align 8
  %.not.i3 = icmp eq ptr %20, null
  br i1 %.not.i3, label %_ZN2os13signal_notifyEi.exit, label %21

21:                                               ; preds = %.split2
  %22 = call noundef i32 asm sideeffect "lock xaddl $0,($2)", "=r,0,r,~{cc},~{memory},~{dirflag},~{fpsr},~{flags}"(i32 1, ptr nonnull getelementptr inbounds (i8, ptr @_ZL15pending_signals, i64 8)) #20, !srcloc !8
  br label %_ZN2os13signal_notifyEi.exit.sink.split

23:                                               ; preds = %18
  call void @_ZN2os3dieEv() #22
  unreachable

_ZN2os13signal_notifyEi.exit.sink.split:          ; preds = %14, %21
  %24 = load ptr, ptr @_ZL13sig_semaphore, align 8
  call void @_ZN14PosixSemaphore6signalEj(ptr noundef nonnull align 8 dereferenceable(32) %24, i32 noundef 1) #20
  br label %_ZN2os13signal_notifyEi.exit

_ZN2os13signal_notifyEi.exit:                     ; preds = %_ZN2os13signal_notifyEi.exit.sink.split, %.split2, %.split
  ret void
}